; Function Attrs: mustprogress uwtable
define void @_ZN4toku12range_buffer13record_header4initEPK10__toku_dbtS4_b(ptr noundef nonnull align 2 captures(none) dereferenceable(10) initializes((0, 9)) %0, ptr noundef %1, ptr noundef %2, i1 noundef zeroext %3) local_unnamed_addr #1 align 2 {
  %5 = zext i1 %3 to i8
  %6 = getelementptr inbounds nuw i8, ptr %0, i64 8
  store i8 %5, ptr %6, align 2, !tbaa !13
  %7 = tail call noundef ptr @_Z26toku_dbt_negative_infinityv()
  %8 = icmp eq ptr %1, %7
  %9 = zext i1 %8 to i8
  store i8 %9, ptr %0, align 2, !tbaa !4
  %10 = tail call noundef ptr @_Z26toku_dbt_positive_infinityv()
  %11 = icmp eq ptr %1, %10
  %12 = getelementptr inbounds nuw i8, ptr %0, i64 1
  %13 = zext i1 %11 to i8
  store i8 %13, ptr %12, align 1, !tbaa !14
  %14 = tail call noundef zeroext i1 @_Z20toku_dbt_is_infinitePK10__toku_dbt(ptr noundef %1)
  br i1 %14, label %19, label %15

15:                                               ; preds = %4
  %16 = getelementptr inbounds nuw i8, ptr %1, i64 8
  %17 = load i64, ptr %16, align 8, !tbaa !15
  %18 = trunc i64 %17 to i16
  br label %19

19:                                               ; preds = %4, %15
  %20 = phi i16 [ %18, %15 ], [ 0, %4 ]
  %21 = getelementptr inbounds nuw i8, ptr %0, i64 4
  store i16 %20, ptr %21, align 2, !tbaa !20
  %.not = icmp eq ptr %2, null
  br i1 %.not, label %36, label %22

22:                                               ; preds = %19
  %23 = tail call noundef ptr @_Z26toku_dbt_negative_infinityv()
  %24 = icmp eq ptr %2, %23
  %25 = getelementptr inbounds nuw i8, ptr %0, i64 3
  %26 = zext i1 %24 to i8
  store i8 %26, ptr %25, align 1, !tbaa !12
  %27 = tail call noundef ptr @_Z26toku_dbt_positive_infinityv()
  %28 = icmp eq ptr %2, %27
  %29 = getelementptr inbounds nuw i8, ptr %0, i64 2
  %30 = zext i1 %28 to i8
  store i8 %30, ptr %29, align 2, !tbaa !21
  %31 = tail call noundef zeroext i1 @_Z20toku_dbt_is_infinitePK10__toku_dbt(ptr noundef nonnull %2)
  br i1 %31, label %41, label %32

32:                                               ; preds = %22
  %33 = getelementptr inbounds nuw i8, ptr %2, i64 8
  %34 = load i64, ptr %33, align 8, !tbaa !15
  %35 = trunc i64 %34 to i16
  br label %41

36:                                               ; preds = %19
  %37 = load i8, ptr %0, align 2, !tbaa !4, !range !10, !noundef !11
  %38 = getelementptr inbounds nuw i8, ptr %0, i64 3
  store i8 %37, ptr %38, align 1, !tbaa !12
  %39 = load i8, ptr %12, align 1, !tbaa !14, !range !10, !noundef !11
  %40 = getelementptr inbounds nuw i8, ptr %0, i64 2
  store i8 %39, ptr %40, align 2, !tbaa !21
  br label %41

41:                                               ; preds = %32, %22, %36
  %.sink = phi i16 [ 0, %36 ], [ %35, %32 ], [ 0, %22 ]
  %42 = getelementptr inbounds nuw i8, ptr %0, i64 6
  store i16 %.sink, ptr %42, align 2, !tbaa !22
  ret void
}